; Function Attrs: mustprogress uwtable
define internal fastcc void @_ZN5arrow12_GLOBAL__N_120ValidateColumnLengthERKNS_11RecordBatchEi(ptr dead_on_unwind noalias nonnull writable align 8 %0, ptr noundef nonnull align 8 dereferenceable(32) %1, i32 noundef %2) unnamed_addr #1 personality ptr @__gxx_personality_v0 {
  %4 = alloca i32, align 4
  %5 = alloca %"class.std::shared_ptr.15", align 8
  %6 = alloca i64, align 8
  %7 = alloca i64, align 8
  store i32 %2, ptr %4, align 4, !tbaa !52
  call void @llvm.lifetime.start.p0(i64 16, ptr nonnull %5) #27
  %8 = load ptr, ptr %1, align 8, !tbaa !56
  %9 = getelementptr inbounds nuw i8, ptr %8, i64 24
  %10 = load ptr, ptr %9, align 8
  call void %10(ptr dead_on_unwind nonnull writable sret(%"class.std::shared_ptr.15") align 8 %5, ptr noundef nonnull align 8 dereferenceable(32) %1, i32 noundef %2)
  %11 = load ptr, ptr %5, align 8, !tbaa !40
  %12 = getelementptr inbounds nuw i8, ptr %5, i64 8
  %13 = load ptr, ptr %12, align 8, !tbaa !51
  %.not.i.i = icmp eq ptr %13, null
  br i1 %.not.i.i, label %_ZNSt12__shared_ptrIN5arrow5ArrayELN9__gnu_cxx12_Lock_policyE2EED2Ev.exit, label %14

14:                                               ; preds = %3
  %15 = getelementptr inbounds nuw i8, ptr %13, i64 8
  %16 = load atomic i64, ptr %15 acquire, align 8
  %17 = icmp eq i64 %16, 4294967297
  %18 = trunc i64 %16 to i32
  br i1 %17, label %19, label %27

19:                                               ; preds = %14
  store i32 0, ptr %15, align 8, !tbaa !53
  %20 = getelementptr inbounds nuw i8, ptr %13, i64 12
  store i32 0, ptr %20, align 4, !tbaa !55
  %21 = load ptr, ptr %13, align 8, !tbaa !56
  %22 = getelementptr inbounds nuw i8, ptr %21, i64 16
  %23 = load ptr, ptr %22, align 8
  call void %23(ptr noundef nonnull align 8 dereferenceable(16) %13) #27
  %24 = load ptr, ptr %13, align 8, !tbaa !56
  %25 = getelementptr inbounds nuw i8, ptr %24, i64 24
  %26 = load ptr, ptr %25, align 8
  call void %26(ptr noundef nonnull align 8 dereferenceable(16) %13) #27
  br label %_ZNSt12__shared_ptrIN5arrow5ArrayELN9__gnu_cxx12_Lock_policyE2EED2Ev.exit

27:                                               ; preds = %14
  %28 = load i8, ptr @__libc_single_threaded, align 1, !tbaa !39
  %.not.i.i.i = icmp eq i8 %28, 0
  br i1 %.not.i.i.i, label %31, label %29

29:                                               ; preds = %27
  %30 = add nsw i32 %18, -1
  store i32 %30, ptr %15, align 4, !tbaa !52
  br label %_ZN9__gnu_cxx27__exchange_and_add_dispatchEPii.exit.i.i.i

31:                                               ; preds = %27
  %32 = atomicrmw volatile add ptr %15, i32 -1 acq_rel, align 4
  br label %_ZN9__gnu_cxx27__exchange_and_add_dispatchEPii.exit.i.i.i

_ZN9__gnu_cxx27__exchange_and_add_dispatchEPii.exit.i.i.i: ; preds = %31, %29
  %.0.i.i.i.i = phi i32 [ %18, %29 ], [ %32, %31 ]
  %33 = icmp eq i32 %.0.i.i.i.i, 1
  br i1 %33, label %34, label %_ZNSt12__shared_ptrIN5arrow5ArrayELN9__gnu_cxx12_Lock_policyE2EED2Ev.exit, !prof !58

34:                                               ; preds = %_ZN9__gnu_cxx27__exchange_and_add_dispatchEPii.exit.i.i.i
  call void @_ZNSt16_Sp_counted_baseILN9__gnu_cxx12_Lock_policyE2EE24_M_release_last_use_coldEv(ptr noundef nonnull align 8 dereferenceable(16) %13) #27
  br label %_ZNSt12__shared_ptrIN5arrow5ArrayELN9__gnu_cxx12_Lock_policyE2EED2Ev.exit

_ZNSt12__shared_ptrIN5arrow5ArrayELN9__gnu_cxx12_Lock_policyE2EED2Ev.exit: ; preds = %3, %19, %_ZN9__gnu_cxx27__exchange_and_add_dispatchEPii.exit.i.i.i, %34
  call void @llvm.lifetime.end.p0(i64 16, ptr nonnull %5) #27
  %35 = getelementptr inbounds nuw i8, ptr %11, i64 8
  %36 = load ptr, ptr %35, align 8, !tbaa !45
  %37 = getelementptr inbounds nuw i8, ptr %36, i64 16
  %38 = load i64, ptr %37, align 8, !tbaa !174
  %39 = getelementptr inbounds nuw i8, ptr %1, i64 24
  %40 = load i64, ptr %39, align 8, !tbaa !62
  %.not = icmp eq i64 %38, %40
  br i1 %.not, label %42, label %41, !prof !88

41:                                               ; preds = %_ZNSt12__shared_ptrIN5arrow5ArrayELN9__gnu_cxx12_Lock_policyE2EED2Ev.exit
  call void @llvm.lifetime.start.p0(i64 8, ptr nonnull %6) #27
  store i64 %38, ptr %6, align 8, !tbaa !65
  call void @llvm.lifetime.start.p0(i64 8, ptr nonnull %7) #27
  store i64 %40, ptr %7, align 8, !tbaa !65
  call void @_ZN5arrow6Status7InvalidIJRA26_KcRiRA23_S2_lRA5_S2_lEEES0_DpOT_(ptr dead_on_unwind nonnull writable sret(%"class.arrow::Status") align 8 %0, ptr noundef nonnull align 1 dereferenceable(26) @.str.27, ptr noundef nonnull align 4 dereferenceable(4) %4, ptr noundef nonnull align 1 dereferenceable(23) @.str.28, ptr noundef nonnull align 8 dereferenceable(8) %6, ptr noundef nonnull align 1 dereferenceable(5) @.str.29, ptr noundef nonnull align 8 dereferenceable(8) %7)
  call void @llvm.lifetime.end.p0(i64 8, ptr nonnull %7) #27
  call void @llvm.lifetime.end.p0(i64 8, ptr nonnull %6) #27
  br label %43

42:                                               ; preds = %_ZNSt12__shared_ptrIN5arrow5ArrayELN9__gnu_cxx12_Lock_policyE2EED2Ev.exit
  store ptr null, ptr %0, align 8, !tbaa !85, !alias.scope !203
  br label %43

43:                                               ; preds = %42, %41
  ret void
}